target datalayout = "e-m:e-p270:32:32-p271:32:32-p272:64:64-i64:64-i128:128-f80:128-n8:16:32:64-S128"
target triple = "x86_64-unknown-linux-gnu"

%"struct.Ptex::v2_2::PtexCache::Stats" = type { i64, i64, i64, i64, i64, i64, i64 }

@_ZN4pbrtL5cacheE = internal global ptr null, align 8
@_ZN4pbrtL14nFilesAccessedE = internal thread_local global i64 0, align 8
@_ZN4pbrtL11nBlockReadsE = internal thread_local global i64 0, align 8
@_ZN4pbrtL14peakMemoryUsedE = internal thread_local global i64 0, align 8

; Function Attrs: mustprogress nounwind uwtable
define linkonce_odr dso_local noundef nonnull align 8 dereferenceable(8) ptr @_ZSt3maxIlERKT_S2_S2_(ptr noundef nonnull align 8 dereferenceable(8) %__a, ptr noundef nonnull align 8 dereferenceable(8) %__b) #5 comdat {
entry:
  %retval = alloca ptr, align 8
  %__a.addr = alloca ptr, align 8
  %__b.addr = alloca ptr, align 8
  store ptr %__a, ptr %__a.addr, align 8
  store ptr %__b, ptr %__b.addr, align 8
  %0 = load ptr, ptr %__a.addr, align 8
  %1 = load i64, ptr %0, align 8
  %2 = load ptr, ptr %__b.addr, align 8
  %3 = load i64, ptr %2, align 8
  %cmp = icmp slt i64 %1, %3
  br i1 %cmp, label %if.then, label %if.end

if.then:                                          ; preds = %entry
  %4 = load ptr, ptr %__b.addr, align 8
  store ptr %4, ptr %retval, align 8
  br label %return

if.end:                                           ; preds = %entry
  %5 = load ptr, ptr %__a.addr, align 8
  store ptr %5, ptr %retval, align 8
  br label %return

return:                                           ; preds = %if.end, %if.then
  %6 = load ptr, ptr %retval, align 8
  ret ptr %6
}

; Function Attrs: mustprogress uwtable
define dso_local void @_ZN4pbrt15PtexTextureBase11ReportStatsEv() #1 align 2 {
entry:
  %stats = alloca %"struct.Ptex::v2_2::PtexCache::Stats", align 8
  %ref.tmp = alloca i64, align 8
  %0 = load ptr, ptr @_ZN4pbrtL5cacheE, align 8
  %tobool = icmp ne ptr %0, null
  br i1 %tobool, label %if.end, label %if.then

if.then:                                          ; preds = %entry
  br label %return

if.end:                                           ; preds = %entry
  %1 = load ptr, ptr @_ZN4pbrtL5cacheE, align 8
  %vtable = load ptr, ptr %1, align 8
  %vfn = getelementptr inbounds ptr, ptr %vtable, i64 9
  %2 = load ptr, ptr %vfn, align 8
  call void %2(ptr noundef nonnull align 8 dereferenceable(8) %1, ptr noundef nonnull align 8 dereferenceable(56) %stats)
  %filesAccessed = getelementptr inbounds %"struct.Ptex::v2_2::PtexCache::Stats", ptr %stats, i32 0, i32 4
  %3 = load i64, ptr %filesAccessed, align 8
  %4 = call align 8 ptr @llvm.threadlocal.address.p0(ptr align 8 @_ZN4pbrtL14nFilesAccessedE)
  %5 = load i64, ptr %4, align 8
  %add = add i64 %5, %3
  store i64 %add, ptr %4, align 8
  %blockReads = getelementptr inbounds %"struct.Ptex::v2_2::PtexCache::Stats", ptr %stats, i32 0, i32 6
  %6 = load i64, ptr %blockReads, align 8
  %7 = call align 8 ptr @llvm.threadlocal.address.p0(ptr align 8 @_ZN4pbrtL11nBlockReadsE)
  %8 = load i64, ptr %7, align 8
  %add1 = add i64 %8, %6
  store i64 %add1, ptr %7, align 8
  %9 = call align 8 ptr @llvm.threadlocal.address.p0(ptr align 8 @_ZN4pbrtL14peakMemoryUsedE)
  %peakMemUsed = getelementptr inbounds %"struct.Ptex::v2_2::PtexCache::Stats", ptr %stats, i32 0, i32 1
  %10 = load i64, ptr %peakMemUsed, align 8
  store i64 %10, ptr %ref.tmp, align 8
  %call = call noundef nonnull align 8 dereferenceable(8) ptr @_ZSt3maxIlERKT_S2_S2_(ptr noundef nonnull align 8 dereferenceable(8) %9, ptr noundef nonnull align 8 dereferenceable(8) %ref.tmp)
  %11 = load i64, ptr %call, align 8
  %12 = call align 8 ptr @llvm.threadlocal.address.p0(ptr align 8 @_ZN4pbrtL14peakMemoryUsedE)
  store i64 %11, ptr %12, align 8
  br label %return

return:                                           ; preds = %if.end, %if.then
  ret void
}