; Function Attrs: mustprogress uwtable
define dso_local void @_ZN4pbrt15PtexTextureBase11ReportStatsEv() local_unnamed_addr #0 align 2 {
entry:
  %stats = alloca %"struct.Ptex::v2_2::PtexCache::Stats", align 8
  %0 = load ptr, ptr @_ZN4pbrtL5cacheE, align 8
  %tobool.not = icmp eq ptr %0, null
  br i1 %tobool.not, label %return, label %if.end

if.end:                                           ; preds = %entry
  %vtable = load ptr, ptr %0, align 8
  %vfn = getelementptr inbounds i8, ptr %vtable, i64 72
  %1 = load ptr, ptr %vfn, align 8
  call void %1(ptr noundef nonnull align 8 dereferenceable(8) %0, ptr noundef nonnull align 8 dereferenceable(56) %stats)
  %filesAccessed = getelementptr inbounds i8, ptr %stats, i64 32
  %2 = load i64, ptr %filesAccessed, align 8
  %3 = call align 8 ptr @llvm.threadlocal.address.p0(ptr align 8 @_ZN4pbrtL14nFilesAccessedE)
  %4 = load i64, ptr %3, align 8
  %add = add i64 %4, %2
  store i64 %add, ptr %3, align 8
  %blockReads = getelementptr inbounds i8, ptr %stats, i64 48
  %5 = load i64, ptr %blockReads, align 8
  %6 = call align 8 ptr @llvm.threadlocal.address.p0(ptr align 8 @_ZN4pbrtL11nBlockReadsE)
  %7 = load i64, ptr %6, align 8
  %add1 = add i64 %7, %5
  store i64 %add1, ptr %6, align 8
  %8 = call align 8 ptr @llvm.threadlocal.address.p0(ptr align 8 @_ZN4pbrtL14peakMemoryUsedE)
  %peakMemUsed = getelementptr inbounds i8, ptr %stats, i64 8
  %9 = load i64, ptr %peakMemUsed, align 8
  %10 = load i64, ptr %8, align 8
  %.sroa.speculated = call i64 @llvm.smax.i64(i64 %10, i64 %9)
  store i64 %.sroa.speculated, ptr %8, align 8
  br label %return

return:                                           ; preds = %entry, %if.end
  ret void
}